target datalayout = "e-m:e-p270:32:32-p271:32:32-p272:64:64-i64:64-i128:128-f80:128-n8:16:32:64-S128"
target triple = "x86_64-pc-linux-gnu"

%struct.expert_field = type { i32, i32 }
%struct.MessageHeader = type { [4 x i8], %struct.Version, i8, i8, i32, i32, i32, ptr }
%struct.Version = type { i8, i8 }

@hf_Tango_Device_5_get_attribute_config_5_return_loop = internal global i32 0, align 4
@hf_Tango_Device_5_get_attribute_config_5_names_loop = internal global i32 0, align 4
@hf_Tango_Device_5_get_attribute_config_5_names = internal global i32 0, align 4
@ei_tango_unknown_giop_msg = internal global %struct.expert_field zeroinitializer, align 4
@ei_tango_unknown_exception = internal global %struct.expert_field zeroinitializer, align 4
@ett_giop_struct = internal global i32 0, align 4
@ett_giop_sequence = internal global i32 0, align 4
@boundary = internal global i32 12, align 4
@.str.771 = private unnamed_addr constant [21 x i8] c"Unknown exception %d\00", align 1
@.str.772 = private unnamed_addr constant [24 x i8] c"Unknown GIOP message %d\00", align 1
@.str.820 = private unnamed_addr constant [31 x i8] c"struct Tango_AttributeConfig_5\00", align 1
@.str.833 = private unnamed_addr constant [53 x i8] c"sequence Tango_Device_5_get_attribute_config_5_names\00", align 1
@.str.834 = private unnamed_addr constant [54 x i8] c"sequence Tango_Device_5_get_attribute_config_5_return\00", align 1

; Function Attrs: null_pointer_is_valid sspstrong uwtable
define internal void @decode_Tango_Device_5_get_attribute_config_5(ptr noundef %0, ptr noundef %1, ptr noundef %2, ptr noundef %3, ptr noundef %4, ptr noundef %5, ptr noundef %6, i1 noundef zeroext %7) #0 {
  %9 = alloca ptr, align 8
  %10 = alloca ptr, align 8
  %11 = alloca ptr, align 8
  %12 = alloca ptr, align 8
  %13 = alloca ptr, align 8
  %14 = alloca ptr, align 8
  %15 = alloca ptr, align 8
  %16 = alloca i8, align 1
  %17 = alloca i32, align 4
  %18 = alloca i32, align 4
  %19 = alloca i32, align 4
  %20 = alloca i32, align 4
  %21 = alloca ptr, align 8
  %22 = alloca ptr, align 8
  %23 = alloca ptr, align 8
  store ptr %0, ptr %9, align 8
  store ptr %1, ptr %10, align 8
  store ptr %2, ptr %11, align 8
  store ptr %3, ptr %12, align 8
  store ptr %4, ptr %13, align 8
  store ptr %5, ptr %14, align 8
  store ptr %6, ptr %15, align 8
  %24 = zext i1 %7 to i8
  store i8 %24, ptr %16, align 1
  call void @llvm.lifetime.start.p0(i64 4, ptr %17) #6
  call void @llvm.lifetime.start.p0(i64 4, ptr %18) #6
  call void @llvm.lifetime.start.p0(i64 4, ptr %19) #6
  call void @llvm.lifetime.start.p0(i64 4, ptr %20) #6
  %25 = load ptr, ptr %14, align 8
  %26 = getelementptr inbounds nuw %struct.MessageHeader, ptr %25, i32 0, i32 3
  %27 = load i8, ptr %26, align 1
  %28 = zext i8 %27 to i32
  switch i32 %28, label %127 [
    i32 0, label %29
    i32 1, label %68
  ]

29:                                               ; preds = %8
  %30 = load ptr, ptr %9, align 8
  %31 = load ptr, ptr %13, align 8
  %32 = load i8, ptr %16, align 1, !range !6, !noundef !7
  %33 = trunc i8 %32 to i1
  %34 = load i32, ptr @boundary, align 4
  %35 = call i32 @get_CDR_ulong(ptr noundef %30, ptr noundef %31, i1 noundef zeroext %33, i32 noundef %34)
  store i32 %35, ptr %17, align 4
  %36 = load ptr, ptr %11, align 8
  %37 = load i32, ptr @hf_Tango_Device_5_get_attribute_config_5_names_loop, align 4
  %38 = load ptr, ptr %9, align 8
  %39 = load ptr, ptr %13, align 8
  %40 = load i32, ptr %39, align 4
  %41 = sub i32 %40, 4
  %42 = load i32, ptr %17, align 4
  %43 = call ptr @proto_tree_add_uint(ptr noundef %36, i32 noundef %37, ptr noundef %38, i32 noundef %41, i32 noundef 4, i32 noundef %42)
  call void @llvm.lifetime.start.p0(i64 8, ptr %21) #6
  %44 = load ptr, ptr %11, align 8
  store ptr %44, ptr %21, align 8
  %45 = load ptr, ptr %11, align 8
  %46 = load ptr, ptr %9, align 8
  %47 = load ptr, ptr %13, align 8
  %48 = load i32, ptr %47, align 4
  %49 = load i32, ptr @ett_giop_sequence, align 4
  %50 = call ptr @proto_tree_add_subtree(ptr noundef %45, ptr noundef %46, i32 noundef %48, i32 noundef -1, i32 noundef %49, ptr noundef null, ptr noundef @.str.833)
  store ptr %50, ptr %11, align 8
  store i32 0, ptr %18, align 4
  br label %51

51:                                               ; preds = %63, %29
  %52 = load i32, ptr %18, align 4
  %53 = load i32, ptr %17, align 4
  %54 = icmp ult i32 %52, %53
  br i1 %54, label %55, label %66

55:                                               ; preds = %51
  %56 = load ptr, ptr %11, align 8
  %57 = load ptr, ptr %9, align 8
  %58 = load ptr, ptr %13, align 8
  %59 = load i8, ptr %16, align 1, !range !6, !noundef !7
  %60 = trunc i8 %59 to i1
  %61 = load i32, ptr @boundary, align 4
  %62 = load i32, ptr @hf_Tango_Device_5_get_attribute_config_5_names, align 4
  call void @giop_add_CDR_string(ptr noundef %56, ptr noundef %57, ptr noundef %58, i1 noundef zeroext %60, i32 noundef %61, i32 noundef %62)
  br label %63

63:                                               ; preds = %55
  %64 = load i32, ptr %18, align 4
  %65 = add i32 %64, 1
  store i32 %65, ptr %18, align 4
  br label %51, !llvm.loop !18

66:                                               ; preds = %51
  %67 = load ptr, ptr %21, align 8
  store ptr %67, ptr %11, align 8
  call void @llvm.lifetime.end.p0(i64 8, ptr %21) #6
  br label %135

68:                                               ; preds = %8
  %69 = load ptr, ptr %14, align 8
  %70 = getelementptr inbounds nuw %struct.MessageHeader, ptr %69, i32 0, i32 6
  %71 = load i32, ptr %70, align 8
  switch i32 %71, label %119 [
    i32 0, label %72
    i32 1, label %126
  ]

72:                                               ; preds = %68
  %73 = load ptr, ptr %9, align 8
  %74 = load ptr, ptr %13, align 8
  %75 = load i8, ptr %16, align 1, !range !6, !noundef !7
  %76 = trunc i8 %75 to i1
  %77 = load i32, ptr @boundary, align 4
  %78 = call i32 @get_CDR_ulong(ptr noundef %73, ptr noundef %74, i1 noundef zeroext %76, i32 noundef %77)
  store i32 %78, ptr %19, align 4
  %79 = load ptr, ptr %11, align 8
  %80 = load i32, ptr @hf_Tango_Device_5_get_attribute_config_5_return_loop, align 4
  %81 = load ptr, ptr %9, align 8
  %82 = load ptr, ptr %13, align 8
  %83 = load i32, ptr %82, align 4
  %84 = sub i32 %83, 4
  %85 = load i32, ptr %19, align 4
  %86 = call ptr @proto_tree_add_uint(ptr noundef %79, i32 noundef %80, ptr noundef %81, i32 noundef %84, i32 noundef 4, i32 noundef %85)
  call void @llvm.lifetime.start.p0(i64 8, ptr %22) #6
  %87 = load ptr, ptr %11, align 8
  store ptr %87, ptr %22, align 8
  %88 = load ptr, ptr %11, align 8
  %89 = load ptr, ptr %9, align 8
  %90 = load ptr, ptr %13, align 8
  %91 = load i32, ptr %90, align 4
  %92 = load i32, ptr @ett_giop_sequence, align 4
  %93 = call ptr @proto_tree_add_subtree(ptr noundef %88, ptr noundef %89, i32 noundef %91, i32 noundef -1, i32 noundef %92, ptr noundef null, ptr noundef @.str.834)
  store ptr %93, ptr %11, align 8
  store i32 0, ptr %20, align 4
  br label %94

94:                                               ; preds = %114, %72
  %95 = load i32, ptr %20, align 4
  %96 = load i32, ptr %19, align 4
  %97 = icmp ult i32 %95, %96
  br i1 %97, label %98, label %117

98:                                               ; preds = %94
  call void @llvm.lifetime.start.p0(i64 8, ptr %23) #6
  %99 = load ptr, ptr %11, align 8
  %100 = load ptr, ptr %9, align 8
  %101 = load ptr, ptr %13, align 8
  %102 = load i32, ptr %101, align 4
  %103 = load i32, ptr @ett_giop_struct, align 4
  %104 = call ptr @proto_tree_add_subtree(ptr noundef %99, ptr noundef %100, i32 noundef %102, i32 noundef -1, i32 noundef %103, ptr noundef null, ptr noundef @.str.820)
  store ptr %104, ptr %23, align 8
  %105 = load ptr, ptr %9, align 8
  %106 = load ptr, ptr %10, align 8
  %107 = load ptr, ptr %23, align 8
  %108 = load ptr, ptr %12, align 8
  %109 = load ptr, ptr %13, align 8
  %110 = load ptr, ptr %14, align 8
  %111 = load ptr, ptr %15, align 8
  %112 = load i8, ptr %16, align 1, !range !6, !noundef !7
  %113 = trunc i8 %112 to i1
  call void @decode_Tango_AttributeConfig_5_st(ptr noundef %105, ptr noundef %106, ptr noundef %107, ptr noundef %108, ptr noundef %109, ptr noundef %110, ptr noundef %111, i1 noundef zeroext %113)
  call void @llvm.lifetime.end.p0(i64 8, ptr %23) #6
  br label %114

114:                                              ; preds = %98
  %115 = load i32, ptr %20, align 4
  %116 = add i32 %115, 1
  store i32 %116, ptr %20, align 4
  br label %94, !llvm.loop !19

117:                                              ; preds = %94
  %118 = load ptr, ptr %22, align 8
  store ptr %118, ptr %11, align 8
  call void @llvm.lifetime.end.p0(i64 8, ptr %22) #6
  br label %126

119:                                              ; preds = %68
  %120 = load ptr, ptr %10, align 8
  %121 = load ptr, ptr %12, align 8
  %122 = load ptr, ptr %14, align 8
  %123 = getelementptr inbounds nuw %struct.MessageHeader, ptr %122, i32 0, i32 6
  %124 = load i32, ptr %123, align 8
  %125 = call ptr (ptr, ptr, ptr, ptr, ...) @expert_add_info_format(ptr noundef %120, ptr noundef %121, ptr noundef @ei_tango_unknown_exception, ptr noundef @.str.771, i32 noundef %124)
  br label %126

126:                                              ; preds = %119, %68, %117
  br label %135

127:                                              ; preds = %8
  %128 = load ptr, ptr %10, align 8
  %129 = load ptr, ptr %12, align 8
  %130 = load ptr, ptr %14, align 8
  %131 = getelementptr inbounds nuw %struct.MessageHeader, ptr %130, i32 0, i32 3
  %132 = load i8, ptr %131, align 1
  %133 = zext i8 %132 to i32
  %134 = call ptr (ptr, ptr, ptr, ptr, ...) @expert_add_info_format(ptr noundef %128, ptr noundef %129, ptr noundef @ei_tango_unknown_giop_msg, ptr noundef @.str.772, i32 noundef %133)
  br label %135

135:                                              ; preds = %127, %126, %66
  call void @llvm.lifetime.end.p0(i64 4, ptr %20) #6
  call void @llvm.lifetime.end.p0(i64 4, ptr %19) #6
  call void @llvm.lifetime.end.p0(i64 4, ptr %18) #6
  call void @llvm.lifetime.end.p0(i64 4, ptr %17) #6
  ret void
}