; Function Attrs: null_pointer_is_valid sspstrong uwtable
define internal fastcc void @decode_Tango_Device_5_get_attribute_config_5(ptr noundef %0, ptr noundef %1, ptr noundef %2, ptr noundef %3, ptr noundef %4, ptr noundef readonly captures(none) %5, i1 noundef zeroext %6) unnamed_addr #0 {
  %8 = getelementptr inbounds nuw i8, ptr %5, i64 7
  %9 = load i8, ptr %8, align 1
  switch i8 %9, label %39 [
    i8 0, label %10
    i8 1, label %21
  ]

10:                                               ; preds = %7
  %11 = tail call i32 @get_CDR_ulong(ptr noundef %0, ptr noundef %4, i1 noundef zeroext %6, i32 noundef 12)
  %12 = load i32, ptr @hf_Tango_Device_5_get_attribute_config_5_names_loop, align 4
  %13 = load i32, ptr %4, align 4
  %14 = add i32 %13, -4
  %15 = tail call ptr @proto_tree_add_uint(ptr noundef %2, i32 noundef %12, ptr noundef %0, i32 noundef %14, i32 noundef 4, i32 noundef %11)
  %16 = load i32, ptr %4, align 4
  %17 = load i32, ptr @ett_giop_sequence, align 4
  %18 = tail call ptr @proto_tree_add_subtree(ptr noundef %2, ptr noundef %0, i32 noundef %16, i32 noundef -1, i32 noundef %17, ptr noundef null, ptr noundef nonnull @.str.833)
  %.not5 = icmp eq i32 %11, 0
  br i1 %.not5, label %.loopexit, label %.lr.ph4

.lr.ph4:                                          ; preds = %10, %.lr.ph4
  %.03 = phi i32 [ %20, %.lr.ph4 ], [ 0, %10 ]
  %19 = load i32, ptr @hf_Tango_Device_5_get_attribute_config_5_names, align 4
  tail call void @giop_add_CDR_string(ptr noundef %18, ptr noundef %0, ptr noundef %4, i1 noundef zeroext %6, i32 noundef 12, i32 noundef %19)
  %20 = add nuw i32 %.03, 1
  %exitcond7.not = icmp eq i32 %20, %11
  br i1 %exitcond7.not, label %.loopexit, label %.lr.ph4, !llvm.loop !29

21:                                               ; preds = %7
  %22 = getelementptr inbounds nuw i8, ptr %5, i64 16
  %23 = load i32, ptr %22, align 8
  switch i32 %23, label %37 [
    i32 0, label %24
    i32 1, label %.loopexit
  ]

24:                                               ; preds = %21
  %25 = tail call i32 @get_CDR_ulong(ptr noundef %0, ptr noundef %4, i1 noundef zeroext %6, i32 noundef 12)
  %26 = load i32, ptr @hf_Tango_Device_5_get_attribute_config_5_return_loop, align 4
  %27 = load i32, ptr %4, align 4
  %28 = add i32 %27, -4
  %29 = tail call ptr @proto_tree_add_uint(ptr noundef %2, i32 noundef %26, ptr noundef %0, i32 noundef %28, i32 noundef 4, i32 noundef %25)
  %30 = load i32, ptr %4, align 4
  %31 = load i32, ptr @ett_giop_sequence, align 4
  %32 = tail call ptr @proto_tree_add_subtree(ptr noundef %2, ptr noundef %0, i32 noundef %30, i32 noundef -1, i32 noundef %31, ptr noundef null, ptr noundef nonnull @.str.834)
  %.not = icmp eq i32 %25, 0
  br i1 %.not, label %.loopexit, label %.lr.ph

.lr.ph:                                           ; preds = %24, %.lr.ph
  %.0522 = phi i32 [ %36, %.lr.ph ], [ 0, %24 ]
  %33 = load i32, ptr %4, align 4
  %34 = load i32, ptr @ett_giop_struct, align 4
  %35 = tail call ptr @proto_tree_add_subtree(ptr noundef %32, ptr noundef %0, i32 noundef %33, i32 noundef -1, i32 noundef %34, ptr noundef null, ptr noundef nonnull @.str.820)
  tail call fastcc void @decode_Tango_AttributeConfig_5_st(ptr noundef %0, ptr noundef %35, ptr noundef %4, i1 noundef zeroext %6)
  %36 = add nuw i32 %.0522, 1
  %exitcond.not = icmp eq i32 %36, %25
  br i1 %exitcond.not, label %.loopexit, label %.lr.ph, !llvm.loop !30

37:                                               ; preds = %21
  %38 = tail call ptr (ptr, ptr, ptr, ptr, ...) @expert_add_info_format(ptr noundef %1, ptr noundef %3, ptr noundef nonnull @ei_tango_unknown_exception, ptr noundef nonnull @.str.771, i32 noundef %23)
  br label %.loopexit

39:                                               ; preds = %7
  %40 = zext i8 %9 to i32
  %41 = tail call ptr (ptr, ptr, ptr, ptr, ...) @expert_add_info_format(ptr noundef %1, ptr noundef %3, ptr noundef nonnull @ei_tango_unknown_giop_msg, ptr noundef nonnull @.str.772, i32 noundef %40)
  br label %.loopexit

.loopexit:                                        ; preds = %.lr.ph, %.lr.ph4, %24, %10, %21, %37, %39
  ret void
}